target datalayout = "e-m:e-p270:32:32-p271:32:32-p272:64:64-i64:64-i128:128-f80:128-n8:16:32:64-S128"
target triple = "x86_64-pc-linux-gnu"

%struct.OSSL_TIME = type { i64 }
%struct.quic_reactor_st = type { %struct.bio_poll_descriptor_st, %struct.bio_poll_descriptor_st, %struct.OSSL_TIME, ptr, ptr, ptr, %struct.rio_notifier_st, ptr, i64, i8 }
%struct.bio_poll_descriptor_st = type { i32, %union.anon }
%union.anon = type { ptr }
%struct.rio_notifier_st = type { i32, i32 }
%struct.quic_tick_result_st = type { %struct.OSSL_TIME, i8, i8, i8 }

; Function Attrs: nounwind uwtable
define internal void @rtor_notify_other_threads(ptr noundef %0) #0 {
  %2 = alloca ptr, align 8
  store ptr %0, ptr %2, align 8, !tbaa !3
  %3 = load ptr, ptr %2, align 8, !tbaa !3
  %4 = getelementptr inbounds nuw %struct.quic_reactor_st, ptr %3, i32 0, i32 9
  %5 = load i8, ptr %4, align 8
  %6 = lshr i8 %5, 4
  %7 = and i8 %6, 1
  %8 = zext i8 %7 to i32
  %9 = icmp ne i32 %8, 0
  br i1 %9, label %11, label %10

10:                                               ; preds = %1
  br label %50

11:                                               ; preds = %1
  %12 = load ptr, ptr %2, align 8, !tbaa !3
  %13 = getelementptr inbounds nuw %struct.quic_reactor_st, ptr %12, i32 0, i32 8
  %14 = load i64, ptr %13, align 8, !tbaa !25
  %15 = icmp eq i64 %14, 0
  br i1 %15, label %16, label %17

16:                                               ; preds = %11
  br label %50

17:                                               ; preds = %11
  %18 = load ptr, ptr %2, align 8, !tbaa !3
  %19 = getelementptr inbounds nuw %struct.quic_reactor_st, ptr %18, i32 0, i32 9
  %20 = load i8, ptr %19, align 8
  %21 = lshr i8 %20, 5
  %22 = and i8 %21, 1
  %23 = zext i8 %22 to i32
  %24 = icmp ne i32 %23, 0
  br i1 %24, label %34, label %25

25:                                               ; preds = %17
  %26 = load ptr, ptr %2, align 8, !tbaa !3
  %27 = getelementptr inbounds nuw %struct.quic_reactor_st, ptr %26, i32 0, i32 6
  %28 = call i32 @ossl_rio_notifier_signal(ptr noundef %27)
  %29 = load ptr, ptr %2, align 8, !tbaa !3
  %30 = getelementptr inbounds nuw %struct.quic_reactor_st, ptr %29, i32 0, i32 9
  %31 = load i8, ptr %30, align 8
  %32 = and i8 %31, -33
  %33 = or i8 %32, 32
  store i8 %33, ptr %30, align 8
  br label %34

34:                                               ; preds = %25, %17
  br label %35

35:                                               ; preds = %43, %34
  %36 = load ptr, ptr %2, align 8, !tbaa !3
  %37 = getelementptr inbounds nuw %struct.quic_reactor_st, ptr %36, i32 0, i32 9
  %38 = load i8, ptr %37, align 8
  %39 = lshr i8 %38, 5
  %40 = and i8 %39, 1
  %41 = zext i8 %40 to i32
  %42 = icmp ne i32 %41, 0
  br i1 %42, label %43, label %50

43:                                               ; preds = %35
  %44 = load ptr, ptr %2, align 8, !tbaa !3
  %45 = getelementptr inbounds nuw %struct.quic_reactor_st, ptr %44, i32 0, i32 7
  %46 = load ptr, ptr %45, align 8, !tbaa !26
  %47 = load ptr, ptr %2, align 8, !tbaa !3
  %48 = getelementptr inbounds nuw %struct.quic_reactor_st, ptr %47, i32 0, i32 5
  %49 = load ptr, ptr %48, align 8, !tbaa !24
  call void @ossl_crypto_condvar_wait(ptr noundef %46, ptr noundef %49)
  br label %35, !llvm.loop !37

50:                                               ; preds = %10, %16, %35
  ret void
}

; Function Attrs: nounwind uwtable
define i32 @ossl_quic_reactor_tick(ptr noundef %0, i32 noundef %1) #0 {
  %3 = alloca ptr, align 8
  %4 = alloca i32, align 4
  %5 = alloca %struct.quic_tick_result_st, align 8
  store ptr %0, ptr %3, align 8, !tbaa !3
  store i32 %1, ptr %4, align 4, !tbaa !30
  call void @llvm.lifetime.start.p0(i64 16, ptr %5) #8
  call void @llvm.memset.p0.i64(ptr align 8 %5, i8 0, i64 16, i1 false)
  %6 = load ptr, ptr %3, align 8, !tbaa !3
  %7 = getelementptr inbounds nuw %struct.quic_reactor_st, ptr %6, i32 0, i32 3
  %8 = load ptr, ptr %7, align 8, !tbaa !22
  %9 = load ptr, ptr %3, align 8, !tbaa !3
  %10 = getelementptr inbounds nuw %struct.quic_reactor_st, ptr %9, i32 0, i32 4
  %11 = load ptr, ptr %10, align 8, !tbaa !23
  %12 = load i32, ptr %4, align 4, !tbaa !30
  call void %8(ptr noundef %5, ptr noundef %11, i32 noundef %12)
  %13 = getelementptr inbounds nuw %struct.quic_tick_result_st, ptr %5, i32 0, i32 1
  %14 = load i8, ptr %13, align 8, !tbaa !33
  %15 = sext i8 %14 to i32
  %16 = load ptr, ptr %3, align 8, !tbaa !3
  %17 = getelementptr inbounds nuw %struct.quic_reactor_st, ptr %16, i32 0, i32 9
  %18 = trunc i32 %15 to i8
  %19 = load i8, ptr %17, align 8
  %20 = and i8 %18, 1
  %21 = and i8 %19, -2
  %22 = or i8 %21, %20
  store i8 %22, ptr %17, align 8
  %23 = getelementptr inbounds nuw %struct.quic_tick_result_st, ptr %5, i32 0, i32 2
  %24 = load i8, ptr %23, align 1, !tbaa !35
  %25 = sext i8 %24 to i32
  %26 = load ptr, ptr %3, align 8, !tbaa !3
  %27 = getelementptr inbounds nuw %struct.quic_reactor_st, ptr %26, i32 0, i32 9
  %28 = trunc i32 %25 to i8
  %29 = load i8, ptr %27, align 8
  %30 = and i8 %28, 1
  %31 = shl i8 %30, 1
  %32 = and i8 %29, -3
  %33 = or i8 %32, %31
  store i8 %33, ptr %27, align 8
  %34 = load ptr, ptr %3, align 8, !tbaa !3
  %35 = getelementptr inbounds nuw %struct.quic_reactor_st, ptr %34, i32 0, i32 2
  %36 = getelementptr inbounds nuw %struct.quic_tick_result_st, ptr %5, i32 0, i32 0
  call void @llvm.memcpy.p0.p0.i64(ptr align 8 %35, ptr align 8 %36, i64 8, i1 false), !tbaa.struct !21
  %37 = getelementptr inbounds nuw %struct.quic_tick_result_st, ptr %5, i32 0, i32 3
  %38 = load i8, ptr %37, align 2, !tbaa !36
  %39 = icmp ne i8 %38, 0
  br i1 %39, label %40, label %42

40:                                               ; preds = %2
  %41 = load ptr, ptr %3, align 8, !tbaa !3
  call void @rtor_notify_other_threads(ptr noundef %41)
  br label %42

42:                                               ; preds = %40, %2
  call void @llvm.lifetime.end.p0(i64 16, ptr %5) #8
  ret i32 1
}