; Function Attrs: nounwind uwtable
define noundef i32 @ossl_quic_reactor_tick(ptr noundef initializes((32, 40)) %0, i32 noundef %1) local_unnamed_addr #0 {
  %3 = alloca %struct.quic_tick_result_st, align 8
  call void @llvm.lifetime.start.p0(i64 16, ptr nonnull %3) #10
  call void @llvm.memset.p0.i64(ptr noundef nonnull align 8 dereferenceable(16) %3, i8 0, i64 16, i1 false)
  %4 = getelementptr inbounds nuw i8, ptr %0, i64 40
  %5 = load ptr, ptr %4, align 8, !tbaa !17
  %6 = getelementptr inbounds nuw i8, ptr %0, i64 48
  %7 = load ptr, ptr %6, align 8, !tbaa !18
  call void %5(ptr noundef nonnull %3, ptr noundef %7, i32 noundef %1) #10
  %8 = getelementptr inbounds nuw i8, ptr %3, i64 8
  %9 = load i8, ptr %8, align 8, !tbaa !26
  %10 = getelementptr inbounds nuw i8, ptr %0, i64 88
  %11 = load i8, ptr %10, align 8
  %12 = and i8 %9, 1
  %13 = and i8 %11, -4
  %14 = or disjoint i8 %13, %12
  %15 = getelementptr inbounds nuw i8, ptr %3, i64 9
  %16 = load i8, ptr %15, align 1, !tbaa !28
  %17 = shl i8 %16, 1
  %18 = and i8 %17, 2
  %19 = or disjoint i8 %18, %14
  store i8 %19, ptr %10, align 8
  %20 = getelementptr inbounds nuw i8, ptr %0, i64 32
  %21 = load i64, ptr %3, align 8, !tbaa !16
  store i64 %21, ptr %20, align 8, !tbaa !16
  %22 = getelementptr inbounds nuw i8, ptr %3, i64 10
  %23 = load i8, ptr %22, align 2, !tbaa !29
  %.not = icmp eq i8 %23, 0
  %24 = and i8 %11, 16
  %.not.i = icmp eq i8 %24, 0
  %or.cond = select i1 %.not, i1 true, i1 %.not.i
  br i1 %or.cond, label %rtor_notify_other_threads.exit, label %25

25:                                               ; preds = %2
  %26 = getelementptr inbounds nuw i8, ptr %0, i64 80
  %27 = load i64, ptr %26, align 8, !tbaa !20
  %28 = icmp eq i64 %27, 0
  br i1 %28, label %rtor_notify_other_threads.exit, label %29

29:                                               ; preds = %25
  %30 = and i8 %11, 32
  %.not8.i = icmp eq i8 %30, 0
  br i1 %.not8.i, label %31, label %.lr.ph.i

31:                                               ; preds = %29
  %32 = getelementptr inbounds nuw i8, ptr %0, i64 64
  %33 = call i32 @ossl_rio_notifier_signal(ptr noundef nonnull %32) #10
  %34 = load i8, ptr %10, align 8
  %35 = or i8 %34, 32
  store i8 %35, ptr %10, align 8
  br label %.lr.ph.i

.lr.ph.i:                                         ; preds = %31, %29
  %36 = getelementptr inbounds nuw i8, ptr %0, i64 72
  %37 = getelementptr inbounds nuw i8, ptr %0, i64 56
  br label %38

38:                                               ; preds = %38, %.lr.ph.i
  %39 = load ptr, ptr %36, align 8, !tbaa !21
  %40 = load ptr, ptr %37, align 8, !tbaa !19
  call void @ossl_crypto_condvar_wait(ptr noundef %39, ptr noundef %40) #10
  %41 = load i8, ptr %10, align 8
  %42 = and i8 %41, 32
  %.not9.i = icmp eq i8 %42, 0
  br i1 %.not9.i, label %rtor_notify_other_threads.exit, label %38, !llvm.loop !30

rtor_notify_other_threads.exit:                   ; preds = %38, %25, %2
  call void @llvm.lifetime.end.p0(i64 16, ptr nonnull %3) #10
  ret i32 1
}